; Function Attrs: mustprogress uwtable
define internal void @_ZN11opencv_test12_GLOBAL__N_131gtest_msd_detect_EvalGenerator_B5cxx11Ev(ptr dead_on_unwind noalias writable sret(%"class.testing::internal::ParamGenerator") align 8 %0) #4 {
  %2 = alloca %"class.testing::internal::ValueArray2", align 8
  call void @llvm.lifetime.start.p0(i64 16, ptr nonnull %2) #29
  store ptr @.str.39, ptr %2, align 8, !tbaa !34, !alias.scope !36
  %3 = getelementptr inbounds nuw i8, ptr %2, i64 8
  store ptr @.str.40, ptr %3, align 8, !tbaa !39, !alias.scope !36
  call void @_ZNK7testing8internal11ValueArray2IPKcS3_EcvNS0_14ParamGeneratorIT_EEINSt7__cxx1112basic_stringIcSt11char_traitsIcESaIcEEEEEv(ptr dead_on_unwind writable sret(%"class.testing::internal::ParamGenerator") align 8 %0, ptr noundef nonnull align 8 dereferenceable(16) %2)
  call void @llvm.lifetime.end.p0(i64 16, ptr nonnull %2) #29
  ret void
}